target datalayout = "e-m:e-p270:32:32-p271:32:32-p272:64:64-i64:64-i128:128-f80:128-n8:16:32:64-S128"
target triple = "x86_64-pc-linux-gnu"

%struct._packet_info = type { ptr, ptr, i32, i32, %struct.nstime_t, %struct.nstime_t, %struct.nstime_t, i8, ptr, ptr, ptr, ptr, %struct._address, %struct._address, %struct._address, %struct._address, %struct._address, %struct._address, i32, ptr, i8, [3 x i8], %struct.anon, i32, i32, i32, i32, ptr, i8, ptr, ptr, i16, i16, i32, i32, i16, i32, i32, ptr, ptr, ptr, i8, i8, i16, i16, i16, i32, i16, i16, ptr, ptr, ptr, ptr, ptr, i32, i32 }
%struct.nstime_t = type { i64, i32 }
%struct._address = type { i32, i32, ptr, ptr }
%struct.anon = type { i8, [3 x i8] }
%struct.MAD_Data = type { i8, i8, i8, i8, i16, i64, i16, i32, [232 x i8] }

@hf_infiniband_reserved = internal global i32 0, align 4
@hf_infiniband_SMP_LID = internal global i32 0, align 4
@hf_infiniband_m_key = internal global i32 0, align 4
@hf_infiniband_smp_data = internal global i32 0, align 4
@ett_subn_lid_routed = internal global i32 0, align 4
@.str.1230 = private unnamed_addr constant [3 x i8] c"%s\00", align 1
@.str.1336 = private unnamed_addr constant [18 x i8] c"SMP (LID Routed) \00", align 1
@.str.1337 = private unnamed_addr constant [32 x i8] c"(Unknown SubManagement Method!)\00", align 1
@.str.1344 = private unnamed_addr constant [35 x i8] c"(Unknown SubManagement Attribute!)\00", align 1

; Function Attrs: null_pointer_is_valid sspstrong uwtable
define internal void @label_SUBM_Attribute(ptr noundef %0, ptr noundef %1, ptr noundef %2) #0 {
  %4 = alloca ptr, align 8
  %5 = alloca ptr, align 8
  %6 = alloca ptr, align 8
  %7 = alloca ptr, align 8
  store ptr %0, ptr %4, align 8
  store ptr %1, ptr %5, align 8
  store ptr %2, ptr %6, align 8
  call void @llvm.lifetime.start.p0(i64 8, ptr %7) #18
  %8 = load ptr, ptr %5, align 8
  %9 = getelementptr inbounds nuw %struct.MAD_Data, ptr %8, i32 0, i32 6
  %10 = load i16, ptr %9, align 8
  %11 = zext i16 %10 to i32
  %12 = call ptr @val_to_str_const(i32 noundef %11, ptr noundef @SUBM_Attributes, ptr noundef @.str.1344)
  store ptr %12, ptr %7, align 8
  %13 = load ptr, ptr %4, align 8
  %14 = load ptr, ptr %7, align 8
  %15 = getelementptr i8, ptr %14, i64 11
  call void (ptr, ptr, ...) @proto_item_append_text(ptr noundef %13, ptr noundef @.str.1230, ptr noundef %15)
  %16 = load ptr, ptr %6, align 8
  %17 = getelementptr inbounds nuw %struct._packet_info, ptr %16, i32 0, i32 1
  %18 = load ptr, ptr %17, align 8
  %19 = load ptr, ptr %7, align 8
  %20 = getelementptr i8, ptr %19, i64 11
  call void @col_append_str(ptr noundef %18, i32 noundef 25, ptr noundef %20)
  call void @llvm.lifetime.end.p0(i64 8, ptr %7) #18
  ret void
}

; Function Attrs: null_pointer_is_valid sspstrong uwtable
define internal void @label_SUBM_Method(ptr noundef %0, ptr noundef %1, ptr noundef %2) #0 {
  %4 = alloca ptr, align 8
  %5 = alloca ptr, align 8
  %6 = alloca ptr, align 8
  %7 = alloca ptr, align 8
  store ptr %0, ptr %4, align 8
  store ptr %1, ptr %5, align 8
  store ptr %2, ptr %6, align 8
  call void @llvm.lifetime.start.p0(i64 8, ptr %7) #18
  %8 = load ptr, ptr %5, align 8
  %9 = getelementptr inbounds nuw %struct.MAD_Data, ptr %8, i32 0, i32 2
  %10 = load i8, ptr %9, align 2
  %11 = zext i8 %10 to i32
  %12 = call ptr @val_to_str_const(i32 noundef %11, ptr noundef @SUBM_Methods, ptr noundef @.str.1337)
  store ptr %12, ptr %7, align 8
  %13 = load ptr, ptr %4, align 8
  %14 = load ptr, ptr %7, align 8
  call void (ptr, ptr, ...) @proto_item_append_text(ptr noundef %13, ptr noundef @.str.1230, ptr noundef %14)
  %15 = load ptr, ptr %6, align 8
  %16 = getelementptr inbounds nuw %struct._packet_info, ptr %15, i32 0, i32 1
  %17 = load ptr, ptr %16, align 8
  %18 = load ptr, ptr %7, align 8
  call void @col_append_str(ptr noundef %17, i32 noundef 25, ptr noundef %18)
  call void @llvm.lifetime.end.p0(i64 8, ptr %7) #18
  ret void
}

; Function Attrs: null_pointer_is_valid sspstrong uwtable
define internal void @parse_SUBN_LID_ROUTED(ptr noundef %0, ptr noundef %1, ptr noundef %2, ptr noundef %3) #0 {
  %5 = alloca ptr, align 8
  %6 = alloca ptr, align 8
  %7 = alloca ptr, align 8
  %8 = alloca ptr, align 8
  %9 = alloca %struct.MAD_Data, align 8
  %10 = alloca i32, align 4
  %11 = alloca ptr, align 8
  %12 = alloca ptr, align 8
  %13 = alloca i32, align 4
  store ptr %0, ptr %5, align 8
  store ptr %1, ptr %6, align 8
  store ptr %2, ptr %7, align 8
  store ptr %3, ptr %8, align 8
  call void @llvm.lifetime.start.p0(i64 256, ptr %9) #18
  call void @llvm.lifetime.start.p0(i64 4, ptr %10) #18
  call void @llvm.lifetime.start.p0(i64 8, ptr %11) #18
  call void @llvm.lifetime.start.p0(i64 8, ptr %12) #18
  %14 = load ptr, ptr %5, align 8
  %15 = load ptr, ptr %7, align 8
  %16 = load ptr, ptr %8, align 8
  %17 = call zeroext i1 @parse_MAD_Common(ptr noundef %14, ptr noundef %15, ptr noundef %16, ptr noundef %9)
  br i1 %17, label %19, label %18

18:                                               ; preds = %4
  store i32 1, ptr %13, align 4
  br label %71

19:                                               ; preds = %4
  %20 = load ptr, ptr %8, align 8
  %21 = load i32, ptr %20, align 4
  store i32 %21, ptr %10, align 4
  %22 = load ptr, ptr %5, align 8
  %23 = load i32, ptr @hf_infiniband_SMP_LID, align 4
  %24 = load ptr, ptr %7, align 8
  %25 = load i32, ptr %10, align 4
  %26 = sub i32 %25, 24
  %27 = call ptr @proto_tree_add_item(ptr noundef %22, i32 noundef %23, ptr noundef %24, i32 noundef %26, i32 noundef 256, i32 noundef 0)
  store ptr %27, ptr %11, align 8
  %28 = load ptr, ptr %11, align 8
  call void (ptr, ptr, ...) @proto_item_set_text(ptr noundef %28, ptr noundef @.str.1230, ptr noundef @.str.1336)
  %29 = load ptr, ptr %11, align 8
  %30 = load i32, ptr @ett_subn_lid_routed, align 4
  %31 = call ptr @proto_item_add_subtree(ptr noundef %29, i32 noundef %30)
  store ptr %31, ptr %12, align 8
  %32 = load ptr, ptr %12, align 8
  %33 = load i32, ptr @hf_infiniband_m_key, align 4
  %34 = load ptr, ptr %7, align 8
  %35 = load i32, ptr %10, align 4
  %36 = call ptr @proto_tree_add_item(ptr noundef %32, i32 noundef %33, ptr noundef %34, i32 noundef %35, i32 noundef 8, i32 noundef 0)
  %37 = load i32, ptr %10, align 4
  %38 = add i32 %37, 8
  store i32 %38, ptr %10, align 4
  %39 = load ptr, ptr %12, align 8
  %40 = load i32, ptr @hf_infiniband_reserved, align 4
  %41 = load ptr, ptr %7, align 8
  %42 = load i32, ptr %10, align 4
  %43 = call ptr @proto_tree_add_item(ptr noundef %39, i32 noundef %40, ptr noundef %41, i32 noundef %42, i32 noundef 32, i32 noundef 0)
  %44 = load i32, ptr %10, align 4
  %45 = add i32 %44, 32
  store i32 %45, ptr %10, align 4
  %46 = load ptr, ptr %11, align 8
  %47 = load ptr, ptr %6, align 8
  call void @label_SUBM_Method(ptr noundef %46, ptr noundef %9, ptr noundef %47)
  %48 = load ptr, ptr %11, align 8
  %49 = load ptr, ptr %6, align 8
  call void @label_SUBM_Attribute(ptr noundef %48, ptr noundef %9, ptr noundef %49)
  %50 = load ptr, ptr %12, align 8
  %51 = load ptr, ptr %7, align 8
  %52 = call zeroext i1 @parse_SUBM_Attribute(ptr noundef %50, ptr noundef %51, ptr noundef %10, ptr noundef %9)
  br i1 %52, label %61, label %53

53:                                               ; preds = %19
  %54 = load ptr, ptr %12, align 8
  %55 = load i32, ptr @hf_infiniband_smp_data, align 4
  %56 = load ptr, ptr %7, align 8
  %57 = load i32, ptr %10, align 4
  %58 = call ptr @proto_tree_add_item(ptr noundef %54, i32 noundef %55, ptr noundef %56, i32 noundef %57, i32 noundef 64, i32 noundef 0)
  %59 = load i32, ptr %10, align 4
  %60 = add i32 %59, 64
  store i32 %60, ptr %10, align 4
  br label %61

61:                                               ; preds = %53, %19
  %62 = load ptr, ptr %12, align 8
  %63 = load i32, ptr @hf_infiniband_reserved, align 4
  %64 = load ptr, ptr %7, align 8
  %65 = load i32, ptr %10, align 4
  %66 = call ptr @proto_tree_add_item(ptr noundef %62, i32 noundef %63, ptr noundef %64, i32 noundef %65, i32 noundef 128, i32 noundef 0)
  %67 = load i32, ptr %10, align 4
  %68 = add i32 %67, 128
  store i32 %68, ptr %10, align 4
  %69 = load i32, ptr %10, align 4
  %70 = load ptr, ptr %8, align 8
  store i32 %69, ptr %70, align 4
  store i32 0, ptr %13, align 4
  br label %71

71:                                               ; preds = %61, %18
  call void @llvm.lifetime.end.p0(i64 8, ptr %12) #18
  call void @llvm.lifetime.end.p0(i64 8, ptr %11) #18
  call void @llvm.lifetime.end.p0(i64 4, ptr %10) #18
  call void @llvm.lifetime.end.p0(i64 256, ptr %9) #18
  %72 = load i32, ptr %13, align 4
  switch i32 %72, label %74 [
    i32 0, label %73
    i32 1, label %73
  ]

73:                                               ; preds = %71, %71
  ret void

74:                                               ; preds = %71
  unreachable
}