; Function Attrs: null_pointer_is_valid sspstrong uwtable
define internal fastcc void @parse_SUBN_LID_ROUTED(ptr noundef %0, ptr noundef readonly captures(none) %1, ptr noundef %2, ptr noundef captures(none) %3) unnamed_addr #0 {
  %5 = alloca %struct.MAD_Data, align 8
  %6 = alloca i32, align 4
  call void @llvm.lifetime.start.p0(i64 256, ptr nonnull %5) #14
  call void @llvm.lifetime.start.p0(i64 4, ptr nonnull %6) #14
  %7 = call fastcc zeroext i1 @parse_MAD_Common(ptr noundef %0, ptr noundef %2, ptr noundef %3, ptr noundef nonnull %5)
  br i1 %7, label %8, label %35

8:                                                ; preds = %4
  %9 = load i32, ptr %3, align 4
  %10 = load i32, ptr @hf_infiniband_SMP_LID, align 4
  %11 = add i32 %9, -24
  %12 = call ptr @proto_tree_add_item(ptr noundef %0, i32 noundef %10, ptr noundef %2, i32 noundef %11, i32 noundef 256, i32 noundef 0)
  call void (ptr, ptr, ...) @proto_item_set_text(ptr noundef %12, ptr noundef nonnull @.str.1230, ptr noundef nonnull @.str.1336)
  %13 = load i32, ptr @ett_subn_lid_routed, align 4
  %14 = call ptr @proto_item_add_subtree(ptr noundef %12, i32 noundef %13)
  %15 = load i32, ptr @hf_infiniband_m_key, align 4
  %16 = call ptr @proto_tree_add_item(ptr noundef %14, i32 noundef %15, ptr noundef %2, i32 noundef %9, i32 noundef 8, i32 noundef 0)
  %17 = add i32 %9, 8
  %18 = load i32, ptr @hf_infiniband_reserved, align 4
  %19 = call ptr @proto_tree_add_item(ptr noundef %14, i32 noundef %18, ptr noundef %2, i32 noundef %17, i32 noundef 32, i32 noundef 0)
  %20 = add i32 %9, 40
  store i32 %20, ptr %6, align 4
  %21 = getelementptr inbounds nuw i8, ptr %5, i64 2
  %.val = load i8, ptr %21, align 2
  %22 = zext i8 %.val to i32
  %23 = call ptr @val_to_str_const(i32 noundef %22, ptr noundef nonnull @SUBM_Methods, ptr noundef nonnull @.str.1337)
  call void (ptr, ptr, ...) @proto_item_append_text(ptr noundef %12, ptr noundef nonnull @.str.1230, ptr noundef %23)
  %24 = getelementptr inbounds nuw i8, ptr %1, i64 8
  %25 = load ptr, ptr %24, align 8
  call void @col_append_str(ptr noundef %25, i32 noundef 25, ptr noundef %23)
  %26 = getelementptr inbounds nuw i8, ptr %5, i64 16
  %.val23 = load i16, ptr %26, align 8
  %27 = zext i16 %.val23 to i32
  %28 = call ptr @val_to_str_const(i32 noundef %27, ptr noundef nonnull @SUBM_Attributes, ptr noundef nonnull @.str.1344)
  %29 = getelementptr i8, ptr %28, i64 11
  call void (ptr, ptr, ...) @proto_item_append_text(ptr noundef %12, ptr noundef nonnull @.str.1230, ptr noundef %29)
  %30 = load ptr, ptr %24, align 8
  call void @col_append_str(ptr noundef %30, i32 noundef 25, ptr noundef %29)
  %.val24 = load i16, ptr %26, align 8
  call fastcc void @parse_SUBM_Attribute(ptr noundef %14, ptr noundef %2, ptr noundef nonnull %6, i16 %.val24)
  %31 = load i32, ptr @hf_infiniband_reserved, align 4
  %32 = load i32, ptr %6, align 4
  %33 = call ptr @proto_tree_add_item(ptr noundef %14, i32 noundef %31, ptr noundef %2, i32 noundef %32, i32 noundef 128, i32 noundef 0)
  %34 = add i32 %32, 128
  store i32 %34, ptr %3, align 4
  br label %35

35:                                               ; preds = %4, %8
  call void @llvm.lifetime.end.p0(i64 4, ptr nonnull %6) #14
  call void @llvm.lifetime.end.p0(i64 256, ptr nonnull %5) #14
  ret void
}